; Function Attrs: nounwind uwtable
define void @Java_sun_java2d_x11_XSurfaceData_setInvalid(ptr noundef %0, ptr noundef %1) local_unnamed_addr #0 {
  %3 = tail call ptr @SurfaceData_GetOps(ptr noundef %0, ptr noundef %1) #18
  %.not = icmp eq ptr %3, null
  br i1 %.not, label %6, label %4

4:                                                ; preds = %2
  %5 = getelementptr inbounds i8, ptr %3, i64 72
  store i8 1, ptr %5, align 8
  br label %6

6:                                                ; preds = %4, %2
  ret void
}